target datalayout = "e-m:e-p270:32:32-p271:32:32-p272:64:64-i64:64-i128:128-f80:128-n8:16:32:64-S128"
target triple = "x86_64-pc-linux-gnu"

%struct.EVP_INIT_TEST_st = type { ptr, ptr, ptr, ptr, ptr, ptr, i64, i64, i64, i64, i32, i32, i32 }

@testctx = internal global ptr null, align 8
@.str.18 = private unnamed_addr constant [33 x i8] c"../openssl/test/evp_extra_test.c\00", align 1
@testpropq = internal global ptr null, align 8
@.str.197 = private unnamed_addr constant [27 x i8] c"ctx = EVP_CIPHER_CTX_new()\00", align 1
@.str.602 = private unnamed_addr constant [55 x i8] c"type = EVP_CIPHER_fetch(testctx, t->cipher, testpropq)\00", align 1
@.str.620 = private unnamed_addr constant [12 x i8] c"t->expected\00", align 1
@.str.643 = private unnamed_addr constant [63 x i8] c"EVP_CipherInit_ex2(ctx, type, t->key, t->iv, t->initenc, NULL)\00", align 1
@.str.644 = private unnamed_addr constant [61 x i8] c"EVP_CipherUpdate(ctx, outbuf1, &outlen1, t->input, t->inlen)\00", align 1
@.str.645 = private unnamed_addr constant [48 x i8] c"EVP_CipherFinal_ex(ctx, outbuf1, &outlen_final)\00", align 1
@.str.646 = private unnamed_addr constant [8 x i8] c"outbuf1\00", align 1
@.str.647 = private unnamed_addr constant [52 x i8] c"EVP_CipherInit_ex2(ctx, NULL, NULL, NULL, -1, NULL)\00", align 1
@.str.648 = private unnamed_addr constant [61 x i8] c"EVP_CipherUpdate(ctx, outbuf2, &outlen2, t->input, t->inlen)\00", align 1
@.str.649 = private unnamed_addr constant [48 x i8] c"EVP_CipherFinal_ex(ctx, outbuf2, &outlen_final)\00", align 1
@.str.650 = private unnamed_addr constant [8 x i8] c"outbuf2\00", align 1

; Function Attrs: nounwind uwtable
define internal i32 @test_evp_reinit_seq(i32 noundef %0) #0 {
  %2 = alloca i32, align 4
  %3 = alloca i32, align 4
  %4 = alloca i32, align 4
  %5 = alloca i32, align 4
  %6 = alloca i32, align 4
  %7 = alloca [1024 x i8], align 16
  %8 = alloca [1024 x i8], align 16
  %9 = alloca ptr, align 8
  %10 = alloca ptr, align 8
  %11 = alloca ptr, align 8
  store i32 %0, ptr %2, align 4, !tbaa !9
  call void @llvm.lifetime.start.p0(i64 4, ptr %3) #8
  call void @llvm.lifetime.start.p0(i64 4, ptr %4) #8
  call void @llvm.lifetime.start.p0(i64 4, ptr %5) #8
  call void @llvm.lifetime.start.p0(i64 4, ptr %6) #8
  store i32 0, ptr %6, align 4, !tbaa !9
  call void @llvm.lifetime.start.p0(i64 1024, ptr %7) #8
  call void @llvm.lifetime.start.p0(i64 1024, ptr %8) #8
  call void @llvm.lifetime.start.p0(i64 8, ptr %9) #8
  %12 = load i32, ptr %2, align 4, !tbaa !9
  %13 = sext i32 %12 to i64
  %14 = getelementptr inbounds [4 x %struct.EVP_INIT_TEST_st], ptr @evp_reinit_tests, i64 0, i64 %13
  store ptr %14, ptr %9, align 8, !tbaa !54
  call void @llvm.lifetime.start.p0(i64 8, ptr %10) #8
  store ptr null, ptr %10, align 8, !tbaa !39
  call void @llvm.lifetime.start.p0(i64 8, ptr %11) #8
  store ptr null, ptr %11, align 8, !tbaa !41
  %15 = call ptr @EVP_CIPHER_CTX_new()
  store ptr %15, ptr %10, align 8, !tbaa !39
  %16 = call i32 @test_ptr(ptr noundef @.str.18, i32 noundef 4811, ptr noundef @.str.197, ptr noundef %15)
  %17 = icmp ne i32 %16, 0
  br i1 %17, label %18, label %125

18:                                               ; preds = %1
  %19 = load ptr, ptr @testctx, align 8, !tbaa !11
  %20 = load ptr, ptr %9, align 8, !tbaa !54
  %21 = getelementptr inbounds nuw %struct.EVP_INIT_TEST_st, ptr %20, i32 0, i32 0
  %22 = load ptr, ptr %21, align 8, !tbaa !89
  %23 = load ptr, ptr @testpropq, align 8, !tbaa !4
  %24 = call ptr @EVP_CIPHER_fetch(ptr noundef %19, ptr noundef %22, ptr noundef %23)
  store ptr %24, ptr %11, align 8, !tbaa !41
  %25 = call i32 @test_ptr(ptr noundef @.str.18, i32 noundef 4812, ptr noundef @.str.602, ptr noundef %24)
  %26 = icmp ne i32 %25, 0
  br i1 %26, label %27, label %125

27:                                               ; preds = %18
  %28 = load ptr, ptr %10, align 8, !tbaa !39
  %29 = load ptr, ptr %11, align 8, !tbaa !41
  %30 = load ptr, ptr %9, align 8, !tbaa !54
  %31 = getelementptr inbounds nuw %struct.EVP_INIT_TEST_st, ptr %30, i32 0, i32 1
  %32 = load ptr, ptr %31, align 8, !tbaa !93
  %33 = load ptr, ptr %9, align 8, !tbaa !54
  %34 = getelementptr inbounds nuw %struct.EVP_INIT_TEST_st, ptr %33, i32 0, i32 2
  %35 = load ptr, ptr %34, align 8, !tbaa !107
  %36 = load ptr, ptr %9, align 8, !tbaa !54
  %37 = getelementptr inbounds nuw %struct.EVP_INIT_TEST_st, ptr %36, i32 0, i32 11
  %38 = load i32, ptr %37, align 4, !tbaa !91
  %39 = call i32 @EVP_CipherInit_ex2(ptr noundef %28, ptr noundef %29, ptr noundef %32, ptr noundef %35, i32 noundef %38, ptr noundef null)
  %40 = icmp ne i32 %39, 0
  %41 = zext i1 %40 to i32
  %42 = call i32 @test_true(ptr noundef @.str.18, i32 noundef 4814, ptr noundef @.str.643, i32 noundef %41)
  %43 = icmp ne i32 %42, 0
  br i1 %43, label %44, label %125

44:                                               ; preds = %27
  %45 = load ptr, ptr %10, align 8, !tbaa !39
  %46 = getelementptr inbounds [1024 x i8], ptr %7, i64 0, i64 0
  %47 = load ptr, ptr %9, align 8, !tbaa !54
  %48 = getelementptr inbounds nuw %struct.EVP_INIT_TEST_st, ptr %47, i32 0, i32 3
  %49 = load ptr, ptr %48, align 8, !tbaa !95
  %50 = load ptr, ptr %9, align 8, !tbaa !54
  %51 = getelementptr inbounds nuw %struct.EVP_INIT_TEST_st, ptr %50, i32 0, i32 7
  %52 = load i64, ptr %51, align 8, !tbaa !96
  %53 = trunc i64 %52 to i32
  %54 = call i32 @EVP_CipherUpdate(ptr noundef %45, ptr noundef %46, ptr noundef %3, ptr noundef %49, i32 noundef %53)
  %55 = icmp ne i32 %54, 0
  %56 = zext i1 %55 to i32
  %57 = call i32 @test_true(ptr noundef @.str.18, i32 noundef 4816, ptr noundef @.str.644, i32 noundef %56)
  %58 = icmp ne i32 %57, 0
  br i1 %58, label %59, label %125

59:                                               ; preds = %44
  %60 = load ptr, ptr %10, align 8, !tbaa !39
  %61 = getelementptr inbounds [1024 x i8], ptr %7, i64 0, i64 0
  %62 = call i32 @EVP_CipherFinal_ex(ptr noundef %60, ptr noundef %61, ptr noundef %5)
  %63 = icmp ne i32 %62, 0
  %64 = zext i1 %63 to i32
  %65 = call i32 @test_true(ptr noundef @.str.18, i32 noundef 4817, ptr noundef @.str.645, i32 noundef %64)
  %66 = icmp ne i32 %65, 0
  br i1 %66, label %67, label %125

67:                                               ; preds = %59
  %68 = load ptr, ptr %9, align 8, !tbaa !54
  %69 = getelementptr inbounds nuw %struct.EVP_INIT_TEST_st, ptr %68, i32 0, i32 4
  %70 = load ptr, ptr %69, align 8, !tbaa !99
  %71 = load ptr, ptr %9, align 8, !tbaa !54
  %72 = getelementptr inbounds nuw %struct.EVP_INIT_TEST_st, ptr %71, i32 0, i32 8
  %73 = load i64, ptr %72, align 8, !tbaa !100
  %74 = getelementptr inbounds [1024 x i8], ptr %7, i64 0, i64 0
  %75 = load i32, ptr %3, align 4, !tbaa !9
  %76 = load i32, ptr %5, align 4, !tbaa !9
  %77 = add nsw i32 %75, %76
  %78 = sext i32 %77 to i64
  %79 = call i32 @test_mem_eq(ptr noundef @.str.18, i32 noundef 4819, ptr noundef @.str.620, ptr noundef @.str.646, ptr noundef %70, i64 noundef %73, ptr noundef %74, i64 noundef %78)
  %80 = icmp ne i32 %79, 0
  br i1 %80, label %81, label %125

81:                                               ; preds = %67
  %82 = load ptr, ptr %10, align 8, !tbaa !39
  %83 = call i32 @EVP_CipherInit_ex2(ptr noundef %82, ptr noundef null, ptr noundef null, ptr noundef null, i32 noundef -1, ptr noundef null)
  %84 = icmp ne i32 %83, 0
  %85 = zext i1 %84 to i32
  %86 = call i32 @test_true(ptr noundef @.str.18, i32 noundef 4821, ptr noundef @.str.647, i32 noundef %85)
  %87 = icmp ne i32 %86, 0
  br i1 %87, label %88, label %125

88:                                               ; preds = %81
  %89 = load ptr, ptr %10, align 8, !tbaa !39
  %90 = getelementptr inbounds [1024 x i8], ptr %8, i64 0, i64 0
  %91 = load ptr, ptr %9, align 8, !tbaa !54
  %92 = getelementptr inbounds nuw %struct.EVP_INIT_TEST_st, ptr %91, i32 0, i32 3
  %93 = load ptr, ptr %92, align 8, !tbaa !95
  %94 = load ptr, ptr %9, align 8, !tbaa !54
  %95 = getelementptr inbounds nuw %struct.EVP_INIT_TEST_st, ptr %94, i32 0, i32 7
  %96 = load i64, ptr %95, align 8, !tbaa !96
  %97 = trunc i64 %96 to i32
  %98 = call i32 @EVP_CipherUpdate(ptr noundef %89, ptr noundef %90, ptr noundef %4, ptr noundef %93, i32 noundef %97)
  %99 = icmp ne i32 %98, 0
  %100 = zext i1 %99 to i32
  %101 = call i32 @test_true(ptr noundef @.str.18, i32 noundef 4823, ptr noundef @.str.648, i32 noundef %100)
  %102 = icmp ne i32 %101, 0
  br i1 %102, label %103, label %125

103:                                              ; preds = %88
  %104 = load ptr, ptr %10, align 8, !tbaa !39
  %105 = getelementptr inbounds [1024 x i8], ptr %8, i64 0, i64 0
  %106 = call i32 @EVP_CipherFinal_ex(ptr noundef %104, ptr noundef %105, ptr noundef %5)
  %107 = icmp ne i32 %106, 0
  %108 = zext i1 %107 to i32
  %109 = call i32 @test_true(ptr noundef @.str.18, i32 noundef 4824, ptr noundef @.str.649, i32 noundef %108)
  %110 = icmp ne i32 %109, 0
  br i1 %110, label %111, label %125

111:                                              ; preds = %103
  %112 = load ptr, ptr %9, align 8, !tbaa !54
  %113 = getelementptr inbounds nuw %struct.EVP_INIT_TEST_st, ptr %112, i32 0, i32 4
  %114 = load ptr, ptr %113, align 8, !tbaa !99
  %115 = load ptr, ptr %9, align 8, !tbaa !54
  %116 = getelementptr inbounds nuw %struct.EVP_INIT_TEST_st, ptr %115, i32 0, i32 8
  %117 = load i64, ptr %116, align 8, !tbaa !100
  %118 = getelementptr inbounds [1024 x i8], ptr %8, i64 0, i64 0
  %119 = load i32, ptr %4, align 4, !tbaa !9
  %120 = load i32, ptr %5, align 4, !tbaa !9
  %121 = add nsw i32 %119, %120
  %122 = sext i32 %121 to i64
  %123 = call i32 @test_mem_eq(ptr noundef @.str.18, i32 noundef 4826, ptr noundef @.str.620, ptr noundef @.str.650, ptr noundef %114, i64 noundef %117, ptr noundef %118, i64 noundef %122)
  %124 = icmp ne i32 %123, 0
  br i1 %124, label %126, label %125

125:                                              ; preds = %111, %103, %88, %81, %67, %59, %44, %27, %18, %1
  br label %127

126:                                              ; preds = %111
  store i32 1, ptr %6, align 4, !tbaa !9
  br label %127

127:                                              ; preds = %126, %125
  %128 = load ptr, ptr %10, align 8, !tbaa !39
  call void @EVP_CIPHER_CTX_free(ptr noundef %128)
  %129 = load ptr, ptr %11, align 8, !tbaa !41
  call void @EVP_CIPHER_free(ptr noundef %129)
  %130 = load i32, ptr %6, align 4, !tbaa !9
  call void @llvm.lifetime.end.p0(i64 8, ptr %11) #8
  call void @llvm.lifetime.end.p0(i64 8, ptr %10) #8
  call void @llvm.lifetime.end.p0(i64 8, ptr %9) #8
  call void @llvm.lifetime.end.p0(i64 1024, ptr %8) #8
  call void @llvm.lifetime.end.p0(i64 1024, ptr %7) #8
  call void @llvm.lifetime.end.p0(i64 4, ptr %6) #8
  call void @llvm.lifetime.end.p0(i64 4, ptr %5) #8
  call void @llvm.lifetime.end.p0(i64 4, ptr %4) #8
  call void @llvm.lifetime.end.p0(i64 4, ptr %3) #8
  ret i32 %130
}