; Function Attrs: nounwind uwtable
define internal range(i32 0, 2) i32 @test_evp_reinit_seq(i32 noundef %0) #1 {
  %2 = alloca i32, align 4
  %3 = alloca i32, align 4
  %4 = alloca i32, align 4
  %5 = alloca [1024 x i8], align 16
  %6 = alloca [1024 x i8], align 16
  call void @llvm.lifetime.start.p0(i64 4, ptr nonnull %2) #9
  call void @llvm.lifetime.start.p0(i64 4, ptr nonnull %3) #9
  call void @llvm.lifetime.start.p0(i64 4, ptr nonnull %4) #9
  call void @llvm.lifetime.start.p0(i64 1024, ptr nonnull %5) #9
  call void @llvm.lifetime.start.p0(i64 1024, ptr nonnull %6) #9
  %7 = sext i32 %0 to i64
  %8 = getelementptr inbounds [4 x %struct.EVP_INIT_TEST_st], ptr @evp_reinit_tests, i64 0, i64 %7
  %9 = tail call ptr @EVP_CIPHER_CTX_new() #9
  %10 = tail call i32 @test_ptr(ptr noundef nonnull @.str.18, i32 noundef 4811, ptr noundef nonnull @.str.197, ptr noundef %9) #9
  %.not = icmp eq i32 %10, 0
  br i1 %.not, label %64, label %11

11:                                               ; preds = %1
  %12 = load ptr, ptr @testctx, align 8, !tbaa !6
  %13 = load ptr, ptr %8, align 16, !tbaa !53
  %14 = tail call ptr @EVP_CIPHER_fetch(ptr noundef %12, ptr noundef %13, ptr noundef null) #9
  %15 = tail call i32 @test_ptr(ptr noundef nonnull @.str.18, i32 noundef 4812, ptr noundef nonnull @.str.602, ptr noundef %14) #9
  %.not23 = icmp eq i32 %15, 0
  br i1 %.not23, label %64, label %16

16:                                               ; preds = %11
  %17 = getelementptr inbounds nuw i8, ptr %8, i64 84
  %18 = load i32, ptr %17, align 4, !tbaa !55
  %19 = tail call i32 @EVP_CipherInit_ex2(ptr noundef %9, ptr noundef %14, ptr noundef nonnull @kCFBDefaultKey, ptr noundef nonnull @__const.test_cipher_with_engine.keyiv, i32 noundef %18, ptr noundef null) #9
  %20 = icmp ne i32 %19, 0
  %21 = zext i1 %20 to i32
  %22 = tail call i32 @test_true(ptr noundef nonnull @.str.18, i32 noundef 4814, ptr noundef nonnull @.str.643, i32 noundef %21) #9
  %.not24 = icmp eq i32 %22, 0
  br i1 %.not24, label %64, label %23

23:                                               ; preds = %16
  %24 = getelementptr inbounds nuw i8, ptr %8, i64 24
  %25 = load ptr, ptr %24, align 8, !tbaa !61
  %26 = call i32 @EVP_CipherUpdate(ptr noundef %9, ptr noundef nonnull %5, ptr noundef nonnull %2, ptr noundef %25, i32 noundef 24) #9
  %27 = icmp ne i32 %26, 0
  %28 = zext i1 %27 to i32
  %29 = call i32 @test_true(ptr noundef nonnull @.str.18, i32 noundef 4816, ptr noundef nonnull @.str.644, i32 noundef %28) #9
  %.not25 = icmp eq i32 %29, 0
  br i1 %.not25, label %64, label %30

30:                                               ; preds = %23
  %31 = call i32 @EVP_CipherFinal_ex(ptr noundef %9, ptr noundef nonnull %5, ptr noundef nonnull %4) #9
  %32 = icmp ne i32 %31, 0
  %33 = zext i1 %32 to i32
  %34 = call i32 @test_true(ptr noundef nonnull @.str.18, i32 noundef 4817, ptr noundef nonnull @.str.645, i32 noundef %33) #9
  %.not26 = icmp eq i32 %34, 0
  br i1 %.not26, label %64, label %35

35:                                               ; preds = %30
  %36 = getelementptr inbounds nuw i8, ptr %8, i64 32
  %37 = load ptr, ptr %36, align 16, !tbaa !64
  %38 = load i32, ptr %2, align 4, !tbaa !25
  %39 = load i32, ptr %4, align 4, !tbaa !25
  %40 = add nsw i32 %39, %38
  %41 = sext i32 %40 to i64
  %42 = call i32 @test_mem_eq(ptr noundef nonnull @.str.18, i32 noundef 4819, ptr noundef nonnull @.str.620, ptr noundef nonnull @.str.646, ptr noundef %37, i64 noundef 24, ptr noundef nonnull %5, i64 noundef %41) #9
  %.not27 = icmp eq i32 %42, 0
  br i1 %.not27, label %64, label %43

43:                                               ; preds = %35
  %44 = call i32 @EVP_CipherInit_ex2(ptr noundef %9, ptr noundef null, ptr noundef null, ptr noundef null, i32 noundef -1, ptr noundef null) #9
  %45 = icmp ne i32 %44, 0
  %46 = zext i1 %45 to i32
  %47 = call i32 @test_true(ptr noundef nonnull @.str.18, i32 noundef 4821, ptr noundef nonnull @.str.647, i32 noundef %46) #9
  %.not28 = icmp eq i32 %47, 0
  br i1 %.not28, label %64, label %48

48:                                               ; preds = %43
  %49 = call i32 @EVP_CipherUpdate(ptr noundef %9, ptr noundef nonnull %6, ptr noundef nonnull %3, ptr noundef %25, i32 noundef 24) #9
  %50 = icmp ne i32 %49, 0
  %51 = zext i1 %50 to i32
  %52 = call i32 @test_true(ptr noundef nonnull @.str.18, i32 noundef 4823, ptr noundef nonnull @.str.648, i32 noundef %51) #9
  %.not29 = icmp eq i32 %52, 0
  br i1 %.not29, label %64, label %53

53:                                               ; preds = %48
  %54 = call i32 @EVP_CipherFinal_ex(ptr noundef %9, ptr noundef nonnull %6, ptr noundef nonnull %4) #9
  %55 = icmp ne i32 %54, 0
  %56 = zext i1 %55 to i32
  %57 = call i32 @test_true(ptr noundef nonnull @.str.18, i32 noundef 4824, ptr noundef nonnull @.str.649, i32 noundef %56) #9
  %.not30 = icmp eq i32 %57, 0
  br i1 %.not30, label %64, label %58

58:                                               ; preds = %53
  %59 = load i32, ptr %3, align 4, !tbaa !25
  %60 = load i32, ptr %4, align 4, !tbaa !25
  %61 = add nsw i32 %60, %59
  %62 = sext i32 %61 to i64
  %63 = call i32 @test_mem_eq(ptr noundef nonnull @.str.18, i32 noundef 4826, ptr noundef nonnull @.str.620, ptr noundef nonnull @.str.650, ptr noundef %37, i64 noundef 24, ptr noundef nonnull %6, i64 noundef %62) #9
  %.not31 = icmp ne i32 %63, 0
  %spec.select = zext i1 %.not31 to i32
  br label %64

64:                                               ; preds = %58, %1, %11, %16, %23, %30, %35, %43, %48, %53
  %.022 = phi i32 [ 0, %53 ], [ 0, %48 ], [ 0, %43 ], [ 0, %35 ], [ 0, %30 ], [ 0, %23 ], [ 0, %16 ], [ 0, %11 ], [ 0, %1 ], [ %spec.select, %58 ]
  %.0 = phi ptr [ %14, %53 ], [ %14, %48 ], [ %14, %43 ], [ %14, %35 ], [ %14, %30 ], [ %14, %23 ], [ %14, %16 ], [ %14, %11 ], [ null, %1 ], [ %14, %58 ]
  call void @EVP_CIPHER_CTX_free(ptr noundef %9) #9
  call void @EVP_CIPHER_free(ptr noundef %.0) #9
  call void @llvm.lifetime.end.p0(i64 1024, ptr nonnull %6) #9
  call void @llvm.lifetime.end.p0(i64 1024, ptr nonnull %5) #9
  call void @llvm.lifetime.end.p0(i64 4, ptr nonnull %4) #9
  call void @llvm.lifetime.end.p0(i64 4, ptr nonnull %3) #9
  call void @llvm.lifetime.end.p0(i64 4, ptr nonnull %2) #9
  ret i32 %.022
}